Certificate:
    Data:
        Version: 3 (0x2)
        Serial Number: 1 (0x1)
        Signature Algorithm: sha256WithRSAEncryption
        Issuer: CN=ca, O=Mantech, OU=GL, L=Herndon, ST=VA, C=US
        Validity
            Not Before: Jun  4 20:03:12 2020 GMT
            Not After : Jun  4 20:03:12 2021 GMT
        Subject: C=US, ST=VA, O=Mantech, OU=GL, CN=ca
        Subject Public Key Info:
            Public Key Algorithm: rsaEncryption
                RSA Public-Key: (2048 bit)
                Modulus:
                    00:bb:97:59:d0:96:cb:be:36:73:19:3e:de:28:4d:
                    24:7d:62:2f:6b:01:5d:6d:35:6c:6e:c1:b3:5e:a4:
                    1a:b0:ba:4f:28:18:f2:00:a9:37:f4:fa:00:8a:0a:
                    7b:c3:b3:c5:00:6c:bc:d0:8a:22:ca:a6:2b:34:07:
                    c7:f6:84:17:bc:9b:04:22:5b:c6:82:bc:d9:06:a8:
                    93:45:24:82:4a:b1:f3:98:1a:12:c1:c0:eb:06:f0:
                    ca:e9:e1:0f:de:9e:db:04:19:6c:60:34:65:b1:a4:
                    d8:69:0a:c1:01:74:6d:e1:89:d2:47:4e:dd:fa:f1:
                    83:78:38:bf:96:10:92:e7:ff:f2:f8:2f:65:d8:c0:
                    a5:9e:ec:17:71:f7:68:84:bc:85:9c:f4:e2:ae:71:
                    bf:f4:b5:12:ab:50:b4:49:85:ce:76:c1:3a:55:94:
                    81:5f:e7:1f:25:cc:71:b3:63:87:27:0c:bd:68:fa:
                    0d:a4:16:33:ac:4c:ef:75:dd:4b:0b:53:32:fb:55:
                    33:f8:1b:7a:19:96:67:78:d2:9f:08:75:88:d7:aa:
                    f2:62:9f:93:0d:69:68:a0:89:63:93:3b:60:be:79:
                    12:62:ac:f7:37:5d:71:8a:0f:ed:89:8a:9a:a6:b5:
                    fa:01:bb:88:39:c5:c4:f2:3b:f9:81:83:7c:7a:f0:
                    d3:c1
                Exponent: 65537 (0x10001)
        X509v3 extensions:
            X509v3 Basic Constraints: 
                CA:FALSE
            Netscape Comment: 
                OpenSSL Generated Certificate
            X509v3 Subject Key Identifier: 
                E6:5F:D6:11:DB:68:B7:53:5D:C7:A4:73:BF:94:C7:7F:BC:D1:E8:FF
            X509v3 Authority Key Identifier: 
                keyid:AE:52:F2:B3:5A:C1:6A:5E:00:0C:0A:7F:03:67:F9:8D:EE:13:4D:14

    Signature Algorithm: sha256WithRSAEncryption
         0c:71:2a:37:dd:14:90:d5:0b:cb:62:46:8e:4c:34:f6:05:2f:
         02:49:c6:c2:61:9c:d2:2f:a9:8b:36:9f:f0:d5:d2:ed:09:fc:
         f5:1b:b4:60:32:ab:a5:d2:c2:2a:23:9b:2c:0c:b4:75:96:a3:
         9b:6c:14:5e:01:5d:f3:ec:19:d6:61:32:41:d7:cc:cc:ee:15:
         ae:ab:ef:fa:04:a2:7f:01:b4:fa:d4:26:f4:17:6f:46:d3:79:
         4f:93:2e:25:d9:5f:aa:34:33:13:e5:78:5f:92:ac:12:a5:49:
         86:c1:7c:a0:d2:1b:d1:6a:32:cb:bb:79:b3:56:5c:cd:26:37:
         58:95:62:89:32:4f:cd:c6:d0:79:5f:05:ef:3f:c9:69:58:0e:
         17:0f:06:4d:97:e8:b8:bd:b3:6e:96:f2:73:b9:b8:e9:df:ef:
         c8:8d:89:66:57:e6:26:be:a9:87:7b:71:43:0a:8d:a8:31:87:
         ba:5e:ae:48:22:23:09:8d:ad:8a:63:08:5f:f2:b7:a9:c0:0f:
         4c:2d:e3:d4:60:51:30:20:6c:8f:4e:d2:8b:28:b0:12:d8:31:
         6a:d5:4a:e0:51:8a:50:a2:a3:a6:12:f9:d8:94:f6:9e:a4:e8:
         14:eb:66:8f:ab:26:64:fd:90:23:e5:74:10:83:35:c1:60:88:
         df:3f:97:43
-----BEGIN CERTIFICATE-----
MIIDlDCCAnygAwIBAgIBATANBgkqhkiG9w0BAQsFADBYMQswCQYDVQQDDAJjYTEQ
MA4GA1UECgwHTWFudGVjaDELMAkGA1UECwwCR0wxEDAOBgNVBAcMB0hlcm5kb24x
CzAJBgNVBAgMAlZBMQswCQYDVQQGEwJVUzAeFw0yMDA2MDQyMDAzMTJaFw0yMTA2
MDQyMDAzMTJaMEYxCzAJBgNVBAYTAlVTMQswCQYDVQQIDAJWQTEQMA4GA1UECgwH
TWFudGVjaDELMAkGA1UECwwCR0wxCzAJBgNVBAMMAmNhMIIBIjANBgkqhkiG9w0B
AQEFAAOCAQ8AMIIBCgKCAQEAu5dZ0JbLvjZzGT7eKE0kfWIvawFdbTVsbsGzXqQa
sLpPKBjyAKk39PoAigp7w7PFAGy80IoiyqYrNAfH9oQXvJsEIlvGgrzZBqiTRSSC
SrHzmBoSwcDrBvDK6eEP3p7bBBlsYDRlsaTYaQrBAXRt4YnSR07d+vGDeDi/lhCS
5//y+C9l2MClnuwXcfdohLyFnPTirnG/9LUSq1C0SYXOdsE6VZSBX+cfJcxxs2OH
Jwy9aPoNpBYzrEzvdd1LC1My+1Uz+Bt6GZZneNKfCHWI16ryYp+TDWlooIljkztg
vnkSYqz3N11xig/tiYqaprX6AbuIOcXE8jv5gYN8evDTwQIDAQABo3sweTAJBgNV
HRMEAjAAMCwGCWCGSAGG+EIBDQQfFh1PcGVuU1NMIEdlbmVyYXRlZCBDZXJ0aWZp
Y2F0ZTAdBgNVHQ4EFgQU5l/WEdtot1Ndx6Rzv5THf7zR6P8wHwYDVR0jBBgwFoAU
rlLys1rBal4ADAp/A2f5je4TTRQwDQYJKoZIhvcNAQELBQADggEBAAxxKjfdFJDV
C8tiRo5MNPYFLwJJxsJhnNIvqYs2n/DV0u0J/PUbtGAyq6XSwiojmywMtHWWo5ts
FF4BXfPsGdZhMkHXzMzuFa6r7/oEon8BtPrUJvQXb0bTeU+TLiXZX6o0MxPleF+S
rBKlSYbBfKDSG9FqMsu7ebNWXM0mN1iVYokyT83G0HlfBe8/yWlYDhcPBk2X6Li9
s26W8nO5uOnf78iNiWZX5ia+qYd7cUMKjagxh7perkgiIwmNrYpjCF/yt6nAD0wt
49RgUTAgbI9O0ososBLYMWrVSuBRilCio6YS+diU9p6k6BTrZo+rJmT9kCPldBCD
NcFgiN8/l0M=
-----END CERTIFICATE-----
